target datalayout = "e-m:e-p270:32:32-p271:32:32-p272:64:64-i64:64-i128:128-f80:128-n8:16:32:64-S128"
target triple = "x86_64-pc-linux-gnu"

%struct.strvec = type { ptr, i64, i64 }
%struct.credential_capability = type { i8, [3 x i8] }
%struct.credential = type { %struct.string_list, %struct.strvec, %struct.strvec, %struct.strvec, i16, [2 x i8], %struct.credential_capability, %struct.credential_capability, ptr, ptr, ptr, ptr, ptr, ptr, ptr, i64, ptr }
%struct.string_list = type { ptr, i64, i64, i8, ptr }

; Function Attrs: nounwind uwtable
define dso_local i32 @credential_match(ptr noundef %0, ptr noundef %1, i32 noundef %2) #0 {
  %4 = alloca ptr, align 8
  %5 = alloca ptr, align 8
  %6 = alloca i32, align 4
  store ptr %0, ptr %4, align 8, !tbaa !4
  store ptr %1, ptr %5, align 8, !tbaa !4
  store i32 %2, ptr %6, align 4, !tbaa !27
  %7 = load ptr, ptr %4, align 8, !tbaa !4
  %8 = getelementptr inbounds nuw %struct.credential, ptr %7, i32 0, i32 11
  %9 = load ptr, ptr %8, align 8, !tbaa !9
  %10 = icmp ne ptr %9, null
  br i1 %10, label %11, label %25

11:                                               ; preds = %3
  %12 = load ptr, ptr %5, align 8, !tbaa !4
  %13 = getelementptr inbounds nuw %struct.credential, ptr %12, i32 0, i32 11
  %14 = load ptr, ptr %13, align 8, !tbaa !9
  %15 = icmp ne ptr %14, null
  br i1 %15, label %16, label %133

16:                                               ; preds = %11
  %17 = load ptr, ptr %4, align 8, !tbaa !4
  %18 = getelementptr inbounds nuw %struct.credential, ptr %17, i32 0, i32 11
  %19 = load ptr, ptr %18, align 8, !tbaa !9
  %20 = load ptr, ptr %5, align 8, !tbaa !4
  %21 = getelementptr inbounds nuw %struct.credential, ptr %20, i32 0, i32 11
  %22 = load ptr, ptr %21, align 8, !tbaa !9
  %23 = call i32 @strcmp(ptr noundef %19, ptr noundef %22) #11
  %24 = icmp ne i32 %23, 0
  br i1 %24, label %133, label %25

25:                                               ; preds = %16, %3
  %26 = load ptr, ptr %4, align 8, !tbaa !4
  %27 = getelementptr inbounds nuw %struct.credential, ptr %26, i32 0, i32 12
  %28 = load ptr, ptr %27, align 8, !tbaa !19
  %29 = icmp ne ptr %28, null
  br i1 %29, label %30, label %44

30:                                               ; preds = %25
  %31 = load ptr, ptr %5, align 8, !tbaa !4
  %32 = getelementptr inbounds nuw %struct.credential, ptr %31, i32 0, i32 12
  %33 = load ptr, ptr %32, align 8, !tbaa !19
  %34 = icmp ne ptr %33, null
  br i1 %34, label %35, label %133

35:                                               ; preds = %30
  %36 = load ptr, ptr %4, align 8, !tbaa !4
  %37 = getelementptr inbounds nuw %struct.credential, ptr %36, i32 0, i32 12
  %38 = load ptr, ptr %37, align 8, !tbaa !19
  %39 = load ptr, ptr %5, align 8, !tbaa !4
  %40 = getelementptr inbounds nuw %struct.credential, ptr %39, i32 0, i32 12
  %41 = load ptr, ptr %40, align 8, !tbaa !19
  %42 = call i32 @strcmp(ptr noundef %38, ptr noundef %41) #11
  %43 = icmp ne i32 %42, 0
  br i1 %43, label %133, label %44

44:                                               ; preds = %35, %25
  %45 = load ptr, ptr %4, align 8, !tbaa !4
  %46 = getelementptr inbounds nuw %struct.credential, ptr %45, i32 0, i32 13
  %47 = load ptr, ptr %46, align 8, !tbaa !20
  %48 = icmp ne ptr %47, null
  br i1 %48, label %49, label %63

49:                                               ; preds = %44
  %50 = load ptr, ptr %5, align 8, !tbaa !4
  %51 = getelementptr inbounds nuw %struct.credential, ptr %50, i32 0, i32 13
  %52 = load ptr, ptr %51, align 8, !tbaa !20
  %53 = icmp ne ptr %52, null
  br i1 %53, label %54, label %133

54:                                               ; preds = %49
  %55 = load ptr, ptr %4, align 8, !tbaa !4
  %56 = getelementptr inbounds nuw %struct.credential, ptr %55, i32 0, i32 13
  %57 = load ptr, ptr %56, align 8, !tbaa !20
  %58 = load ptr, ptr %5, align 8, !tbaa !4
  %59 = getelementptr inbounds nuw %struct.credential, ptr %58, i32 0, i32 13
  %60 = load ptr, ptr %59, align 8, !tbaa !20
  %61 = call i32 @strcmp(ptr noundef %57, ptr noundef %60) #11
  %62 = icmp ne i32 %61, 0
  br i1 %62, label %133, label %63

63:                                               ; preds = %54, %44
  %64 = load ptr, ptr %4, align 8, !tbaa !4
  %65 = getelementptr inbounds nuw %struct.credential, ptr %64, i32 0, i32 8
  %66 = load ptr, ptr %65, align 8, !tbaa !21
  %67 = icmp ne ptr %66, null
  br i1 %67, label %68, label %82

68:                                               ; preds = %63
  %69 = load ptr, ptr %5, align 8, !tbaa !4
  %70 = getelementptr inbounds nuw %struct.credential, ptr %69, i32 0, i32 8
  %71 = load ptr, ptr %70, align 8, !tbaa !21
  %72 = icmp ne ptr %71, null
  br i1 %72, label %73, label %133

73:                                               ; preds = %68
  %74 = load ptr, ptr %4, align 8, !tbaa !4
  %75 = getelementptr inbounds nuw %struct.credential, ptr %74, i32 0, i32 8
  %76 = load ptr, ptr %75, align 8, !tbaa !21
  %77 = load ptr, ptr %5, align 8, !tbaa !4
  %78 = getelementptr inbounds nuw %struct.credential, ptr %77, i32 0, i32 8
  %79 = load ptr, ptr %78, align 8, !tbaa !21
  %80 = call i32 @strcmp(ptr noundef %76, ptr noundef %79) #11
  %81 = icmp ne i32 %80, 0
  br i1 %81, label %133, label %82

82:                                               ; preds = %73, %63
  %83 = load i32, ptr %6, align 4, !tbaa !27
  %84 = icmp ne i32 %83, 0
  br i1 %84, label %85, label %104

85:                                               ; preds = %82
  %86 = load ptr, ptr %4, align 8, !tbaa !4
  %87 = getelementptr inbounds nuw %struct.credential, ptr %86, i32 0, i32 9
  %88 = load ptr, ptr %87, align 8, !tbaa !24
  %89 = icmp ne ptr %88, null
  br i1 %89, label %90, label %104

90:                                               ; preds = %85
  %91 = load ptr, ptr %5, align 8, !tbaa !4
  %92 = getelementptr inbounds nuw %struct.credential, ptr %91, i32 0, i32 9
  %93 = load ptr, ptr %92, align 8, !tbaa !24
  %94 = icmp ne ptr %93, null
  br i1 %94, label %95, label %133

95:                                               ; preds = %90
  %96 = load ptr, ptr %4, align 8, !tbaa !4
  %97 = getelementptr inbounds nuw %struct.credential, ptr %96, i32 0, i32 9
  %98 = load ptr, ptr %97, align 8, !tbaa !24
  %99 = load ptr, ptr %5, align 8, !tbaa !4
  %100 = getelementptr inbounds nuw %struct.credential, ptr %99, i32 0, i32 9
  %101 = load ptr, ptr %100, align 8, !tbaa !24
  %102 = call i32 @strcmp(ptr noundef %98, ptr noundef %101) #11
  %103 = icmp ne i32 %102, 0
  br i1 %103, label %133, label %104

104:                                              ; preds = %95, %85, %82
  %105 = load i32, ptr %6, align 4, !tbaa !27
  %106 = icmp ne i32 %105, 0
  br i1 %106, label %107, label %131

107:                                              ; preds = %104
  %108 = load ptr, ptr %4, align 8, !tbaa !4
  %109 = getelementptr inbounds nuw %struct.credential, ptr %108, i32 0, i32 10
  %110 = load ptr, ptr %109, align 8, !tbaa !25
  %111 = icmp ne ptr %110, null
  br i1 %111, label %112, label %129

112:                                              ; preds = %107
  %113 = load ptr, ptr %5, align 8, !tbaa !4
  %114 = getelementptr inbounds nuw %struct.credential, ptr %113, i32 0, i32 10
  %115 = load ptr, ptr %114, align 8, !tbaa !25
  %116 = icmp ne ptr %115, null
  br i1 %116, label %117, label %127

117:                                              ; preds = %112
  %118 = load ptr, ptr %4, align 8, !tbaa !4
  %119 = getelementptr inbounds nuw %struct.credential, ptr %118, i32 0, i32 10
  %120 = load ptr, ptr %119, align 8, !tbaa !25
  %121 = load ptr, ptr %5, align 8, !tbaa !4
  %122 = getelementptr inbounds nuw %struct.credential, ptr %121, i32 0, i32 10
  %123 = load ptr, ptr %122, align 8, !tbaa !25
  %124 = call i32 @strcmp(ptr noundef %120, ptr noundef %123) #11
  %125 = icmp ne i32 %124, 0
  %126 = xor i1 %125, true
  br label %127

127:                                              ; preds = %117, %112
  %128 = phi i1 [ false, %112 ], [ %126, %117 ]
  br label %129

129:                                              ; preds = %127, %107
  %130 = phi i1 [ true, %107 ], [ %128, %127 ]
  br label %131

131:                                              ; preds = %129, %104
  %132 = phi i1 [ true, %104 ], [ %130, %129 ]
  br label %133

133:                                              ; preds = %131, %95, %90, %73, %68, %54, %49, %35, %30, %16, %11
  %134 = phi i1 [ false, %95 ], [ false, %90 ], [ false, %73 ], [ false, %68 ], [ false, %54 ], [ false, %49 ], [ false, %35 ], [ false, %30 ], [ false, %16 ], [ false, %11 ], [ %132, %131 ]
  %135 = zext i1 %134 to i32
  ret i32 %135
}