; Function Attrs: mustprogress nofree nounwind willreturn memory(read, inaccessiblemem: none) uwtable
define dso_local range(i32 0, 2) i32 @credential_match(ptr noundef readonly captures(none) %0, ptr noundef readonly captures(none) %1, i32 noundef %2) local_unnamed_addr #9 {
  %4 = getelementptr inbounds nuw i8, ptr %0, i64 152
  %5 = load ptr, ptr %4, align 8, !tbaa !18
  %.not = icmp eq ptr %5, null
  br i1 %.not, label %11, label %6

6:                                                ; preds = %3
  %7 = getelementptr inbounds nuw i8, ptr %1, i64 152
  %8 = load ptr, ptr %7, align 8, !tbaa !18
  %.not36 = icmp eq ptr %8, null
  br i1 %.not36, label %.critedge, label %9

9:                                                ; preds = %6
  %10 = tail call i32 @strcmp(ptr noundef nonnull dereferenceable(1) %5, ptr noundef nonnull dereferenceable(1) %8) #20
  %.not37 = icmp eq i32 %10, 0
  br i1 %.not37, label %11, label %.critedge

11:                                               ; preds = %9, %3
  %12 = getelementptr inbounds nuw i8, ptr %0, i64 160
  %13 = load ptr, ptr %12, align 8, !tbaa !19
  %.not38 = icmp eq ptr %13, null
  br i1 %.not38, label %19, label %14

14:                                               ; preds = %11
  %15 = getelementptr inbounds nuw i8, ptr %1, i64 160
  %16 = load ptr, ptr %15, align 8, !tbaa !19
  %.not39 = icmp eq ptr %16, null
  br i1 %.not39, label %.critedge, label %17

17:                                               ; preds = %14
  %18 = tail call i32 @strcmp(ptr noundef nonnull dereferenceable(1) %13, ptr noundef nonnull dereferenceable(1) %16) #20
  %.not40 = icmp eq i32 %18, 0
  br i1 %.not40, label %19, label %.critedge

19:                                               ; preds = %17, %11
  %20 = getelementptr inbounds nuw i8, ptr %0, i64 168
  %21 = load ptr, ptr %20, align 8, !tbaa !20
  %.not41 = icmp eq ptr %21, null
  br i1 %.not41, label %27, label %22

22:                                               ; preds = %19
  %23 = getelementptr inbounds nuw i8, ptr %1, i64 168
  %24 = load ptr, ptr %23, align 8, !tbaa !20
  %.not42 = icmp eq ptr %24, null
  br i1 %.not42, label %.critedge, label %25

25:                                               ; preds = %22
  %26 = tail call i32 @strcmp(ptr noundef nonnull dereferenceable(1) %21, ptr noundef nonnull dereferenceable(1) %24) #20
  %.not43 = icmp eq i32 %26, 0
  br i1 %.not43, label %27, label %.critedge

27:                                               ; preds = %25, %19
  %28 = getelementptr inbounds nuw i8, ptr %0, i64 128
  %29 = load ptr, ptr %28, align 8, !tbaa !21
  %.not44 = icmp eq ptr %29, null
  br i1 %.not44, label %35, label %30

30:                                               ; preds = %27
  %31 = getelementptr inbounds nuw i8, ptr %1, i64 128
  %32 = load ptr, ptr %31, align 8, !tbaa !21
  %.not45 = icmp eq ptr %32, null
  br i1 %.not45, label %.critedge, label %33

33:                                               ; preds = %30
  %34 = tail call i32 @strcmp(ptr noundef nonnull dereferenceable(1) %29, ptr noundef nonnull dereferenceable(1) %32) #20
  %.not46 = icmp eq i32 %34, 0
  br i1 %.not46, label %35, label %.critedge

35:                                               ; preds = %33, %27
  %.not47 = icmp eq i32 %2, 0
  br i1 %.not47, label %.critedge, label %36

36:                                               ; preds = %35
  %37 = getelementptr inbounds nuw i8, ptr %0, i64 136
  %38 = load ptr, ptr %37, align 8, !tbaa !4
  %.not48 = icmp eq ptr %38, null
  br i1 %.not48, label %44, label %39

39:                                               ; preds = %36
  %40 = getelementptr inbounds nuw i8, ptr %1, i64 136
  %41 = load ptr, ptr %40, align 8, !tbaa !4
  %.not49 = icmp eq ptr %41, null
  br i1 %.not49, label %.critedge, label %42

42:                                               ; preds = %39
  %43 = tail call i32 @strcmp(ptr noundef nonnull dereferenceable(1) %38, ptr noundef nonnull dereferenceable(1) %41) #20
  %.not50.not = icmp eq i32 %43, 0
  br i1 %.not50.not, label %44, label %.critedge

44:                                               ; preds = %36, %42
  %45 = getelementptr inbounds nuw i8, ptr %0, i64 144
  %46 = load ptr, ptr %45, align 8, !tbaa !17
  %.not51 = icmp eq ptr %46, null
  br i1 %.not51, label %.critedge, label %47

47:                                               ; preds = %44
  %48 = getelementptr inbounds nuw i8, ptr %1, i64 144
  %49 = load ptr, ptr %48, align 8, !tbaa !17
  %.not52 = icmp eq ptr %49, null
  br i1 %.not52, label %.critedge, label %50

50:                                               ; preds = %47
  %51 = tail call i32 @strcmp(ptr noundef nonnull dereferenceable(1) %46, ptr noundef nonnull dereferenceable(1) %49) #20
  %.not53 = icmp eq i32 %51, 0
  %52 = zext i1 %.not53 to i32
  br label %.critedge

.critedge:                                        ; preds = %35, %42, %47, %50, %44, %39, %33, %30, %25, %22, %17, %14, %9, %6
  %53 = phi i32 [ 0, %42 ], [ 0, %39 ], [ 0, %33 ], [ 0, %30 ], [ 0, %25 ], [ 0, %22 ], [ 0, %17 ], [ 0, %14 ], [ 0, %9 ], [ 0, %6 ], [ 1, %44 ], [ 0, %47 ], [ %52, %50 ], [ 1, %35 ]
  ret i32 %53
}